target datalayout = "e-m:e-p270:32:32-p271:32:32-p272:64:64-i64:64-i128:128-f80:128-n8:16:32:64-S128"
target triple = "x86_64-pc-linux-gnu"

; Function Attrs: mustprogress nounwind uwtable
define noundef i64 @_ZN3net19GetPacketHeaderSizeENS_11QuicVersionENS_22QuicConnectionIdLengthEbbbNS_22QuicPacketNumberLengthE(i32 noundef %0, i32 noundef %1, i1 noundef zeroext %2, i1 noundef zeroext %3, i1 noundef zeroext %4, i8 noundef signext %5) #1 {
  %7 = alloca i32, align 4
  %8 = alloca i32, align 4
  %9 = alloca i8, align 1
  %10 = alloca i8, align 1
  %11 = alloca i8, align 1
  %12 = alloca i8, align 1
  store i32 %0, ptr %7, align 4, !tbaa !3
  store i32 %1, ptr %8, align 4, !tbaa !28
  %13 = zext i1 %2 to i8
  store i8 %13, ptr %9, align 1, !tbaa !29
  %14 = zext i1 %3 to i8
  store i8 %14, ptr %10, align 1, !tbaa !29
  %15 = zext i1 %4 to i8
  store i8 %15, ptr %11, align 1, !tbaa !29
  store i8 %5, ptr %12, align 1, !tbaa !30
  %16 = load i32, ptr %8, align 4, !tbaa !28
  %17 = zext i32 %16 to i64
  %18 = add i64 1, %17
  %19 = load i8, ptr %9, align 1, !tbaa !29, !range !23, !noundef !24
  %20 = trunc i8 %19 to i1
  %21 = select i1 %20, i64 4, i64 0
  %22 = add i64 %18, %21
  %23 = load i8, ptr %10, align 1, !tbaa !29, !range !23, !noundef !24
  %24 = trunc i8 %23 to i1
  %25 = select i1 %24, i64 1, i64 0
  %26 = add i64 %22, %25
  %27 = load i8, ptr %12, align 1, !tbaa !30
  %28 = sext i8 %27 to i64
  %29 = add i64 %26, %28
  %30 = load i8, ptr %11, align 1, !tbaa !29, !range !23, !noundef !24
  %31 = trunc i8 %30 to i1
  %32 = select i1 %31, i64 32, i64 0
  %33 = add i64 %29, %32
  %34 = load i32, ptr %7, align 4, !tbaa !3
  %35 = icmp sle i32 %34, 33
  %36 = select i1 %35, i64 1, i64 0
  %37 = add i64 %33, %36
  ret i64 %37
}

; Function Attrs: mustprogress nounwind uwtable
define noundef i64 @_ZN3net23GetStartOfEncryptedDataENS_11QuicVersionENS_22QuicConnectionIdLengthEbbbNS_22QuicPacketNumberLengthE(i32 noundef %0, i32 noundef %1, i1 noundef zeroext %2, i1 noundef zeroext %3, i1 noundef zeroext %4, i8 noundef signext %5) #1 {
  %7 = alloca i32, align 4
  %8 = alloca i32, align 4
  %9 = alloca i8, align 1
  %10 = alloca i8, align 1
  %11 = alloca i8, align 1
  %12 = alloca i8, align 1
  store i32 %0, ptr %7, align 4, !tbaa !3
  store i32 %1, ptr %8, align 4, !tbaa !28
  %13 = zext i1 %2 to i8
  store i8 %13, ptr %9, align 1, !tbaa !29
  %14 = zext i1 %3 to i8
  store i8 %14, ptr %10, align 1, !tbaa !29
  %15 = zext i1 %4 to i8
  store i8 %15, ptr %11, align 1, !tbaa !29
  store i8 %5, ptr %12, align 1, !tbaa !30
  %16 = load i32, ptr %7, align 4, !tbaa !3
  %17 = load i32, ptr %8, align 4, !tbaa !28
  %18 = load i8, ptr %9, align 1, !tbaa !29, !range !23, !noundef !24
  %19 = trunc i8 %18 to i1
  %20 = load i8, ptr %10, align 1, !tbaa !29, !range !23, !noundef !24
  %21 = trunc i8 %20 to i1
  %22 = load i8, ptr %11, align 1, !tbaa !29, !range !23, !noundef !24
  %23 = trunc i8 %22 to i1
  %24 = load i8, ptr %12, align 1, !tbaa !30
  %25 = call noundef i64 @_ZN3net19GetPacketHeaderSizeENS_11QuicVersionENS_22QuicConnectionIdLengthEbbbNS_22QuicPacketNumberLengthE(i32 noundef %16, i32 noundef %17, i1 noundef zeroext %19, i1 noundef zeroext %21, i1 noundef zeroext %23, i8 noundef signext %24)
  %26 = load i32, ptr %7, align 4, !tbaa !3
  %27 = icmp sle i32 %26, 33
  %28 = select i1 %27, i64 1, i64 0
  %29 = sub i64 %25, %28
  ret i64 %29
}